; Function Attrs: mustprogress uwtable
define i32 @uspoof_getBidiSkeletonUTF8_75(ptr noundef %sc, i32 noundef %direction, ptr noundef %id, i32 noundef %length, ptr noundef %dest, i32 noundef %destCapacity, ptr noundef %status) local_unnamed_addr #0 personality ptr @__gxx_personality_v0 {
entry:
  %srcStr = alloca %"class.icu_75::UnicodeString", align 8
  %destStr = alloca %"class.icu_75::UnicodeString", align 8
  %lengthInUTF8 = alloca i32, align 4
  %cmp = icmp slt i32 %length, -1
  br i1 %cmp, label %if.then, label %if.end

if.then:                                          ; preds = %entry
  store i32 1, ptr %status, align 4
  br label %return

if.end:                                           ; preds = %entry
  %cmp1 = icmp sgt i32 %length, -1
  br i1 %cmp1, label %invoke.cont, label %cond.false

cond.false:                                       ; preds = %if.end
  %call = tail call i64 @strlen(ptr noundef nonnull dereferenceable(1) %id) #7
  %conv = trunc i64 %call to i32
  br label %invoke.cont

invoke.cont:                                      ; preds = %cond.false, %if.end
  %cond = phi i32 [ %conv, %cond.false ], [ %length, %if.end ]
  call void @_ZN6icu_7513UnicodeString8fromUTF8ENS_11StringPieceE(ptr nonnull sret(%"class.icu_75::UnicodeString") align 8 %srcStr, ptr %id, i32 %cond)
  store ptr getelementptr inbounds ({ [13 x ptr] }, ptr @_ZTVN6icu_7513UnicodeStringE, i64 0, i32 0, i64 2), ptr %destStr, align 8
  %fUnion2.i = getelementptr inbounds i8, ptr %destStr, i64 8
  store i16 2, ptr %fUnion2.i, align 8
  %call4 = invoke noundef nonnull align 8 dereferenceable(64) ptr @_Z38uspoof_getBidiSkeletonUnicodeString_75PK13USpoofChecker14UBiDiDirectionRKN6icu_7513UnicodeStringERS4_P10UErrorCode(ptr noundef %sc, i32 noundef %direction, ptr noundef nonnull align 8 dereferenceable(64) %srcStr, ptr noundef nonnull align 8 dereferenceable(64) %destStr, ptr noundef %status)
          to label %invoke.cont3 unwind label %lpad2

invoke.cont3:                                     ; preds = %invoke.cont
  %0 = load i32, ptr %status, align 4
  %cmp.i = icmp slt i32 %0, 1
  br i1 %cmp.i, label %if.end8, label %cleanup

lpad2:                                            ; preds = %invoke.cont11, %invoke.cont
  %1 = landingpad { ptr, i32 }
          cleanup
  call void @_ZN6icu_7513UnicodeStringD1Ev(ptr noundef nonnull align 8 dereferenceable(64) %destStr) #6
  call void @_ZN6icu_7513UnicodeStringD1Ev(ptr noundef nonnull align 8 dereferenceable(64) %srcStr) #6
  resume { ptr, i32 } %1

if.end8:                                          ; preds = %invoke.cont3
  store i32 0, ptr %lengthInUTF8, align 4
  %2 = load i16, ptr %fUnion2.i, align 8
  %conv1.i = zext i16 %2 to i32
  %and.i = and i32 %conv1.i, 17
  %tobool.not.i = icmp eq i32 %and.i, 0
  br i1 %tobool.not.i, label %if.else.i, label %invoke.cont11

if.else.i:                                        ; preds = %if.end8
  %and5.i = and i32 %conv1.i, 2
  %tobool6.not.i = icmp eq i32 %and5.i, 0
  br i1 %tobool6.not.i, label %if.else9.i, label %if.then7.i

if.then7.i:                                       ; preds = %if.else.i
  %fBuffer.i = getelementptr inbounds i8, ptr %destStr, i64 10
  br label %invoke.cont11

if.else9.i:                                       ; preds = %if.else.i
  %fArray.i = getelementptr inbounds i8, ptr %destStr, i64 24
  %3 = load ptr, ptr %fArray.i, align 8
  br label %invoke.cont11

invoke.cont11:                                    ; preds = %if.else9.i, %if.then7.i, %if.end8
  %retval.0.i = phi ptr [ %fBuffer.i, %if.then7.i ], [ %3, %if.else9.i ], [ null, %if.end8 ]
  %cmp.i.i = icmp slt i16 %2, 0
  %4 = ashr i16 %2, 5
  %shr.i.i = sext i16 %4 to i32
  %fLength.i = getelementptr inbounds i8, ptr %destStr, i64 12
  %5 = load i32, ptr %fLength.i, align 4
  %cond.i = select i1 %cmp.i.i, i32 %5, i32 %shr.i.i
  %call14 = invoke ptr @u_strToUTF8_75(ptr noundef %dest, i32 noundef %destCapacity, ptr noundef nonnull %lengthInUTF8, ptr noundef %retval.0.i, i32 noundef %cond.i, ptr noundef nonnull %status)
          to label %invoke.cont13 unwind label %lpad2

invoke.cont13:                                    ; preds = %invoke.cont11
  %6 = load i32, ptr %lengthInUTF8, align 4
  br label %cleanup

cleanup:                                          ; preds = %invoke.cont3, %invoke.cont13
  %retval.0 = phi i32 [ %6, %invoke.cont13 ], [ 0, %invoke.cont3 ]
  call void @_ZN6icu_7513UnicodeStringD1Ev(ptr noundef nonnull align 8 dereferenceable(64) %destStr) #6
  call void @_ZN6icu_7513UnicodeStringD1Ev(ptr noundef nonnull align 8 dereferenceable(64) %srcStr) #6
  br label %return

return:                                           ; preds = %cleanup, %if.then
  %retval.1 = phi i32 [ 0, %if.then ], [ %retval.0, %cleanup ]
  ret i32 %retval.1
}